ARM GAS  C:\Users\malle\AppData\Local\Temp\ccbgbdle.s 			page 1


   1              		.syntax unified
   2              		.cpu cortex-m3
   3              		.fpu softvfp
   4              		.eabi_attribute 20, 1
   5              		.eabi_attribute 21, 1
   6              		.eabi_attribute 23, 3
   7              		.eabi_attribute 24, 1
   8              		.eabi_attribute 25, 1
   9              		.eabi_attribute 26, 1
  10              		.eabi_attribute 30, 1
  11              		.eabi_attribute 34, 1
  12              		.eabi_attribute 18, 4
  13              		.thumb
  14              		.syntax unified
  15              		.file	"controls.c"
  16              		.text
  17              	.Ltext0:
  18              		.cfi_sections	.debug_frame
  19              		.section	.text.decreaseSpeed,"ax",%progbits
  20              		.align	2
  21              		.global	decreaseSpeed
  22              		.thumb
  23              		.thumb_func
  24              		.type	decreaseSpeed, %function
  25              	decreaseSpeed:
  26              	.LFB64:
  27              		.file 1 "controls.c"
   1:controls.c    **** /* ========================================
   2:controls.c    ****  *
   3:controls.c    ****  * Copyright YOUR COMPANY, THE YEAR
   4:controls.c    ****  * All Rights Reserved
   5:controls.c    ****  * UNPUBLISHED, LICENSED SOFTWARE.
   6:controls.c    ****  *
   7:controls.c    ****  * CONFIDENTIAL AND PROPRIETARY INFORMATION
   8:controls.c    ****  * WHICH IS THE PROPERTY OF your company.
   9:controls.c    ****  *
  10:controls.c    ****  * ========================================
  11:controls.c    **** */
  12:controls.c    **** 
  13:controls.c    **** #include "project.h"
  14:controls.c    **** #include "controls.h"
  15:controls.c    **** #include <stdio.h>
  16:controls.c    **** 
  17:controls.c    **** /*
  18:controls.c    ****  Decrease speed by 10%. Stops at 0%
  19:controls.c    **** */
  20:controls.c    **** void decreaseSpeed()
  21:controls.c    **** {
  28              		.loc 1 21 0
  29              		.cfi_startproc
  30              		@ args = 0, pretend = 0, frame = 256
  31              		@ frame_needed = 0, uses_anonymous_args = 0
  32 0000 10B5     		push	{r4, lr}
  33              		.cfi_def_cfa_offset 8
  34              		.cfi_offset 4, -8
  35              		.cfi_offset 14, -4
  36 0002 C0B0     		sub	sp, sp, #256
ARM GAS  C:\Users\malle\AppData\Local\Temp\ccbgbdle.s 			page 2


  37              		.cfi_def_cfa_offset 264
  22:controls.c    ****     uint8 curr = PWM_1_ReadCompare();
  38              		.loc 1 22 0
  39 0004 FFF7FEFF 		bl	PWM_1_ReadCompare
  40              	.LVL0:
  23:controls.c    ****     
  24:controls.c    ****     if (curr > 0)
  41              		.loc 1 24 0
  42 0008 78B1     		cbz	r0, .L2
  43              	.LBB2:
  25:controls.c    ****     {
  26:controls.c    ****         char buffer[256];
  27:controls.c    ****         snprintf(buffer, sizeof(buffer),
  44              		.loc 1 27 0
  45 000a A0F10A04 		sub	r4, r0, #10
  46 000e 2346     		mov	r3, r4
  47 0010 084A     		ldr	r2, .L5
  48 0012 4FF48071 		mov	r1, #256
  49 0016 6846     		mov	r0, sp
  50              	.LVL1:
  51 0018 FFF7FEFF 		bl	snprintf
  52              	.LVL2:
  28:controls.c    ****             "Decreasing speed to %d\n\r", curr - 10);
  29:controls.c    ****         UART_1_PutString(buffer);
  53              		.loc 1 29 0
  54 001c 6846     		mov	r0, sp
  55 001e FFF7FEFF 		bl	UART_1_PutString
  56              	.LVL3:
  30:controls.c    ****         PWM_1_WriteCompare(curr - 10);
  57              		.loc 1 30 0
  58 0022 E0B2     		uxtb	r0, r4
  59 0024 FFF7FEFF 		bl	PWM_1_WriteCompare
  60              	.LVL4:
  61              	.LBE2:
  62 0028 02E0     		b	.L1
  63              	.LVL5:
  64              	.L2:
  31:controls.c    ****     }
  32:controls.c    ****     else
  33:controls.c    ****     {
  34:controls.c    ****         UART_1_PutString("Minimum speed reached\n\r");
  65              		.loc 1 34 0
  66 002a 0348     		ldr	r0, .L5+4
  67              	.LVL6:
  68 002c FFF7FEFF 		bl	UART_1_PutString
  69              	.LVL7:
  70              	.L1:
  35:controls.c    ****     }
  36:controls.c    **** }
  71              		.loc 1 36 0
  72 0030 40B0     		add	sp, sp, #256
  73              		.cfi_def_cfa_offset 8
  74              		@ sp needed
  75 0032 10BD     		pop	{r4, pc}
  76              	.L6:
  77              		.align	2
  78              	.L5:
ARM GAS  C:\Users\malle\AppData\Local\Temp\ccbgbdle.s 			page 3


  79 0034 00000000 		.word	.LC0
  80 0038 1C000000 		.word	.LC1
  81              		.cfi_endproc
  82              	.LFE64:
  83              		.size	decreaseSpeed, .-decreaseSpeed
  84              		.section	.text.increaseSpeed,"ax",%progbits
  85              		.align	2
  86              		.global	increaseSpeed
  87              		.thumb
  88              		.thumb_func
  89              		.type	increaseSpeed, %function
  90              	increaseSpeed:
  91              	.LFB65:
  37:controls.c    **** /*
  38:controls.c    ****     Increase speed by 10%. Stops at 100%
  39:controls.c    **** */
  40:controls.c    **** void increaseSpeed()
  41:controls.c    **** {
  92              		.loc 1 41 0
  93              		.cfi_startproc
  94              		@ args = 0, pretend = 0, frame = 256
  95              		@ frame_needed = 0, uses_anonymous_args = 0
  96 0000 10B5     		push	{r4, lr}
  97              		.cfi_def_cfa_offset 8
  98              		.cfi_offset 4, -8
  99              		.cfi_offset 14, -4
 100 0002 C0B0     		sub	sp, sp, #256
 101              		.cfi_def_cfa_offset 264
  42:controls.c    ****     uint8 curr = PWM_1_ReadCompare();
 102              		.loc 1 42 0
 103 0004 FFF7FEFF 		bl	PWM_1_ReadCompare
 104              	.LVL8:
  43:controls.c    ****     if (curr < 100)
 105              		.loc 1 43 0
 106 0008 6328     		cmp	r0, #99
 107 000a 0FD8     		bhi	.L8
 108              	.LBB3:
  44:controls.c    ****     {   
  45:controls.c    ****         char buffer[256];
  46:controls.c    ****         snprintf(buffer, sizeof(buffer),
 109              		.loc 1 46 0
 110 000c 00F10A04 		add	r4, r0, #10
 111 0010 2346     		mov	r3, r4
 112 0012 094A     		ldr	r2, .L11
 113 0014 4FF48071 		mov	r1, #256
 114 0018 6846     		mov	r0, sp
 115              	.LVL9:
 116 001a FFF7FEFF 		bl	snprintf
 117              	.LVL10:
  47:controls.c    ****             "Increasing speed to %d\n\r", curr + 10);
  48:controls.c    ****         UART_1_PutString(buffer);
 118              		.loc 1 48 0
 119 001e 6846     		mov	r0, sp
 120 0020 FFF7FEFF 		bl	UART_1_PutString
 121              	.LVL11:
  49:controls.c    ****         PWM_1_WriteCompare(curr + 10);
 122              		.loc 1 49 0
ARM GAS  C:\Users\malle\AppData\Local\Temp\ccbgbdle.s 			page 4


 123 0024 E0B2     		uxtb	r0, r4
 124 0026 FFF7FEFF 		bl	PWM_1_WriteCompare
 125              	.LVL12:
 126              	.LBE3:
 127 002a 02E0     		b	.L7
 128              	.LVL13:
 129              	.L8:
  50:controls.c    ****         
  51:controls.c    ****     }
  52:controls.c    ****     else
  53:controls.c    ****     {
  54:controls.c    ****         UART_1_PutString("Maximum speed reached\n\r");
 130              		.loc 1 54 0
 131 002c 0348     		ldr	r0, .L11+4
 132              	.LVL14:
 133 002e FFF7FEFF 		bl	UART_1_PutString
 134              	.LVL15:
 135              	.L7:
  55:controls.c    ****     }
  56:controls.c    **** }
 136              		.loc 1 56 0
 137 0032 40B0     		add	sp, sp, #256
 138              		.cfi_def_cfa_offset 8
 139              		@ sp needed
 140 0034 10BD     		pop	{r4, pc}
 141              	.L12:
 142 0036 00BF     		.align	2
 143              	.L11:
 144 0038 34000000 		.word	.LC2
 145 003c 50000000 		.word	.LC3
 146              		.cfi_endproc
 147              	.LFE65:
 148              		.size	increaseSpeed, .-increaseSpeed
 149              		.section	.text.driveForwards,"ax",%progbits
 150              		.align	2
 151              		.global	driveForwards
 152              		.thumb
 153              		.thumb_func
 154              		.type	driveForwards, %function
 155              	driveForwards:
 156              	.LFB66:
  57:controls.c    **** void driveForwards()
  58:controls.c    **** {
 157              		.loc 1 58 0
 158              		.cfi_startproc
 159              		@ args = 0, pretend = 0, frame = 0
 160              		@ frame_needed = 0, uses_anonymous_args = 0
 161 0000 08B5     		push	{r3, lr}
 162              		.cfi_def_cfa_offset 8
 163              		.cfi_offset 3, -8
 164              		.cfi_offset 14, -4
  59:controls.c    ****     Pin_IN1_Write(1);
 165              		.loc 1 59 0
 166 0002 0120     		movs	r0, #1
 167 0004 FFF7FEFF 		bl	Pin_IN1_Write
 168              	.LVL16:
  60:controls.c    ****     Pin_IN2_Write(0);
ARM GAS  C:\Users\malle\AppData\Local\Temp\ccbgbdle.s 			page 5


 169              		.loc 1 60 0
 170 0008 0020     		movs	r0, #0
 171 000a FFF7FEFF 		bl	Pin_IN2_Write
 172              	.LVL17:
  61:controls.c    ****     UART_1_PutString("Set direction: forwards\r\n");
 173              		.loc 1 61 0
 174 000e 0248     		ldr	r0, .L15
 175 0010 FFF7FEFF 		bl	UART_1_PutString
 176              	.LVL18:
 177 0014 08BD     		pop	{r3, pc}
 178              	.L16:
 179 0016 00BF     		.align	2
 180              	.L15:
 181 0018 68000000 		.word	.LC4
 182              		.cfi_endproc
 183              	.LFE66:
 184              		.size	driveForwards, .-driveForwards
 185              		.section	.text.driveBackwards,"ax",%progbits
 186              		.align	2
 187              		.global	driveBackwards
 188              		.thumb
 189              		.thumb_func
 190              		.type	driveBackwards, %function
 191              	driveBackwards:
 192              	.LFB67:
  62:controls.c    **** }
  63:controls.c    **** 
  64:controls.c    **** void driveBackwards()
  65:controls.c    **** {
 193              		.loc 1 65 0
 194              		.cfi_startproc
 195              		@ args = 0, pretend = 0, frame = 0
 196              		@ frame_needed = 0, uses_anonymous_args = 0
 197 0000 08B5     		push	{r3, lr}
 198              		.cfi_def_cfa_offset 8
 199              		.cfi_offset 3, -8
 200              		.cfi_offset 14, -4
  66:controls.c    ****     Pin_IN2_Write(1);
 201              		.loc 1 66 0
 202 0002 0120     		movs	r0, #1
 203 0004 FFF7FEFF 		bl	Pin_IN2_Write
 204              	.LVL19:
  67:controls.c    ****     Pin_IN1_Write(0);
 205              		.loc 1 67 0
 206 0008 0020     		movs	r0, #0
 207 000a FFF7FEFF 		bl	Pin_IN1_Write
 208              	.LVL20:
  68:controls.c    ****     UART_1_PutString("Set direction: backwards\r\n");
 209              		.loc 1 68 0
 210 000e 0248     		ldr	r0, .L19
 211 0010 FFF7FEFF 		bl	UART_1_PutString
 212              	.LVL21:
 213 0014 08BD     		pop	{r3, pc}
 214              	.L20:
 215 0016 00BF     		.align	2
 216              	.L19:
 217 0018 84000000 		.word	.LC5
ARM GAS  C:\Users\malle\AppData\Local\Temp\ccbgbdle.s 			page 6


 218              		.cfi_endproc
 219              	.LFE67:
 220              		.size	driveBackwards, .-driveBackwards
 221              		.section	.text.stop,"ax",%progbits
 222              		.align	2
 223              		.global	stop
 224              		.thumb
 225              		.thumb_func
 226              		.type	stop, %function
 227              	stop:
 228              	.LFB68:
  69:controls.c    **** }
  70:controls.c    **** 
  71:controls.c    **** /*
  72:controls.c    ****     Stops motor. Sets speed to 0%
  73:controls.c    **** */
  74:controls.c    **** void stop()
  75:controls.c    **** {
 229              		.loc 1 75 0
 230              		.cfi_startproc
 231              		@ args = 0, pretend = 0, frame = 0
 232              		@ frame_needed = 0, uses_anonymous_args = 0
 233 0000 08B5     		push	{r3, lr}
 234              		.cfi_def_cfa_offset 8
 235              		.cfi_offset 3, -8
 236              		.cfi_offset 14, -4
  76:controls.c    ****     UART_1_PutString("Stop\r\n");
 237              		.loc 1 76 0
 238 0002 0648     		ldr	r0, .L23
 239 0004 FFF7FEFF 		bl	UART_1_PutString
 240              	.LVL22:
  77:controls.c    ****     Pin_IN1_Write(0);
 241              		.loc 1 77 0
 242 0008 0020     		movs	r0, #0
 243 000a FFF7FEFF 		bl	Pin_IN1_Write
 244              	.LVL23:
  78:controls.c    ****     Pin_IN2_Write(0);
 245              		.loc 1 78 0
 246 000e 0020     		movs	r0, #0
 247 0010 FFF7FEFF 		bl	Pin_IN2_Write
 248              	.LVL24:
  79:controls.c    ****     PWM_1_WriteCompare(100);
 249              		.loc 1 79 0
 250 0014 6420     		movs	r0, #100
 251 0016 FFF7FEFF 		bl	PWM_1_WriteCompare
 252              	.LVL25:
 253 001a 08BD     		pop	{r3, pc}
 254              	.L24:
 255              		.align	2
 256              	.L23:
 257 001c A0000000 		.word	.LC6
 258              		.cfi_endproc
 259              	.LFE68:
 260              		.size	stop, .-stop
 261              		.section	.rodata.str1.4,"aMS",%progbits,1
 262              		.align	2
 263              	.LC0:
ARM GAS  C:\Users\malle\AppData\Local\Temp\ccbgbdle.s 			page 7


 264 0000 44656372 		.ascii	"Decreasing speed to %d\012\015\000"
 264      65617369 
 264      6E672073 
 264      70656564 
 264      20746F20 
 265 0019 000000   		.space	3
 266              	.LC1:
 267 001c 4D696E69 		.ascii	"Minimum speed reached\012\015\000"
 267      6D756D20 
 267      73706565 
 267      64207265 
 267      61636865 
 268              	.LC2:
 269 0034 496E6372 		.ascii	"Increasing speed to %d\012\015\000"
 269      65617369 
 269      6E672073 
 269      70656564 
 269      20746F20 
 270 004d 000000   		.space	3
 271              	.LC3:
 272 0050 4D617869 		.ascii	"Maximum speed reached\012\015\000"
 272      6D756D20 
 272      73706565 
 272      64207265 
 272      61636865 
 273              	.LC4:
 274 0068 53657420 		.ascii	"Set direction: forwards\015\012\000"
 274      64697265 
 274      6374696F 
 274      6E3A2066 
 274      6F727761 
 275 0082 0000     		.space	2
 276              	.LC5:
 277 0084 53657420 		.ascii	"Set direction: backwards\015\012\000"
 277      64697265 
 277      6374696F 
 277      6E3A2062 
 277      61636B77 
 278 009f 00       		.space	1
 279              	.LC6:
 280 00a0 53746F70 		.ascii	"Stop\015\012\000"
 280      0D0A00
 281              		.text
 282              	.Letext0:
 283              		.file 2 "c:\\program files (x86)\\cypress\\psoc creator\\4.4\\psoc creator\\import\\gnu\\arm\\5.4.
 284              		.file 3 "c:\\program files (x86)\\cypress\\psoc creator\\4.4\\psoc creator\\import\\gnu\\arm\\5.4.
 285              		.file 4 "Generated_Source\\PSoC5/cytypes.h"
 286              		.file 5 "c:\\program files (x86)\\cypress\\psoc creator\\4.4\\psoc creator\\import\\gnu\\arm\\5.4.
 287              		.file 6 "Generated_Source\\PSoC5/UART_1.h"
 288              		.file 7 "Generated_Source\\PSoC5/PWM_1.h"
 289              		.file 8 "Generated_Source\\PSoC5/Pin_IN1.h"
 290              		.file 9 "Generated_Source\\PSoC5/Pin_IN2.h"
 291              		.file 10 "Generated_Source\\PSoC5/core_cm3.h"