ARM GAS  C:\Users\malle\AppData\Local\Temp\ccXH52jO.s 			page 1


   1              		.syntax unified
   2              		.cpu cortex-m3
   3              		.fpu softvfp
   4              		.eabi_attribute 20, 1
   5              		.eabi_attribute 21, 1
   6              		.eabi_attribute 23, 3
   7              		.eabi_attribute 24, 1
   8              		.eabi_attribute 25, 1
   9              		.eabi_attribute 26, 1
  10              		.eabi_attribute 30, 1
  11              		.eabi_attribute 34, 1
  12              		.eabi_attribute 18, 4
  13              		.thumb
  14              		.syntax unified
  15              		.file	"util.c"
  16              		.text
  17              	.Ltext0:
  18              		.cfi_sections	.debug_frame
  19              		.section	.text.print_help,"ax",%progbits
  20              		.align	2
  21              		.global	print_help
  22              		.thumb
  23              		.thumb_func
  24              		.type	print_help, %function
  25              	print_help:
  26              	.LFB63:
  27              		.file 1 "util.c"
   1:util.c        **** /* ========================================
   2:util.c        ****  *
   3:util.c        ****  * Copyright YOUR COMPANY, THE YEAR
   4:util.c        ****  * All Rights Reserved
   5:util.c        ****  * UNPUBLISHED, LICENSED SOFTWARE.
   6:util.c        ****  *
   7:util.c        ****  * CONFIDENTIAL AND PROPRIETARY INFORMATION
   8:util.c        ****  * WHICH IS THE PROPERTY OF your company.
   9:util.c        ****  *
  10:util.c        ****  * ========================================
  11:util.c        **** */
  12:util.c        **** #include "project.h"
  13:util.c        **** #include "util.h"
  14:util.c        **** #include "controls.h"
  15:util.c        **** 
  16:util.c        **** /*
  17:util.c        **** Prints command options in terminal.
  18:util.c        **** */
  19:util.c        **** void print_help()
  20:util.c        **** {
  28              		.loc 1 20 0
  29              		.cfi_startproc
  30              		@ args = 0, pretend = 0, frame = 0
  31              		@ frame_needed = 0, uses_anonymous_args = 0
  32 0000 08B5     		push	{r3, lr}
  33              		.cfi_def_cfa_offset 8
  34              		.cfi_offset 3, -8
  35              		.cfi_offset 14, -4
  21:util.c        ****     UART_1_PutString("0: Stop\r\n");
  36              		.loc 1 21 0
ARM GAS  C:\Users\malle\AppData\Local\Temp\ccXH52jO.s 			page 2


  37 0002 0948     		ldr	r0, .L3
  38 0004 FFF7FEFF 		bl	UART_1_PutString
  39              	.LVL0:
  22:util.c        ****     UART_1_PutString("1: Drive forwards\r\n");
  40              		.loc 1 22 0
  41 0008 0848     		ldr	r0, .L3+4
  42 000a FFF7FEFF 		bl	UART_1_PutString
  43              	.LVL1:
  23:util.c        ****     UART_1_PutString("2: Drive backwards\r\n");
  44              		.loc 1 23 0
  45 000e 0848     		ldr	r0, .L3+8
  46 0010 FFF7FEFF 		bl	UART_1_PutString
  47              	.LVL2:
  24:util.c        ****     UART_1_PutString("q: Decrease speed\r\n");
  48              		.loc 1 24 0
  49 0014 0748     		ldr	r0, .L3+12
  50 0016 FFF7FEFF 		bl	UART_1_PutString
  51              	.LVL3:
  25:util.c        ****     UART_1_PutString("w: Increase speed\r\n");
  52              		.loc 1 25 0
  53 001a 0748     		ldr	r0, .L3+16
  54 001c FFF7FEFF 		bl	UART_1_PutString
  55              	.LVL4:
  26:util.c        ****     UART_1_PutString("h: Show options\r\n");
  56              		.loc 1 26 0
  57 0020 0648     		ldr	r0, .L3+20
  58 0022 FFF7FEFF 		bl	UART_1_PutString
  59              	.LVL5:
  60 0026 08BD     		pop	{r3, pc}
  61              	.L4:
  62              		.align	2
  63              	.L3:
  64 0028 00000000 		.word	.LC0
  65 002c 0C000000 		.word	.LC1
  66 0030 20000000 		.word	.LC2
  67 0034 38000000 		.word	.LC3
  68 0038 4C000000 		.word	.LC4
  69 003c 60000000 		.word	.LC5
  70              		.cfi_endproc
  71              	.LFE63:
  72              		.size	print_help, .-print_help
  73              		.section	.text.handleByteReceived,"ax",%progbits
  74              		.align	2
  75              		.global	handleByteReceived
  76              		.thumb
  77              		.thumb_func
  78              		.type	handleByteReceived, %function
  79              	handleByteReceived:
  80              	.LFB64:
  27:util.c        ****     
  28:util.c        **** }
  29:util.c        **** 
  30:util.c        **** /*
  31:util.c        **** Handle incoming commands from UART. Calls relevant control functions.
  32:util.c        **** */
  33:util.c        **** void handleByteReceived(uint8_t byteReceived)
  34:util.c        **** {
ARM GAS  C:\Users\malle\AppData\Local\Temp\ccXH52jO.s 			page 3


  81              		.loc 1 34 0
  82              		.cfi_startproc
  83              		@ args = 0, pretend = 0, frame = 0
  84              		@ frame_needed = 0, uses_anonymous_args = 0
  85              	.LVL6:
  86 0000 08B5     		push	{r3, lr}
  87              		.cfi_def_cfa_offset 8
  88              		.cfi_offset 3, -8
  89              		.cfi_offset 14, -4
  35:util.c        ****     switch(byteReceived)
  90              		.loc 1 35 0
  91 0002 3228     		cmp	r0, #50
  92 0004 18D0     		beq	.L7
  93 0006 04D8     		bhi	.L8
  94 0008 3028     		cmp	r0, #48
  95 000a 18D0     		beq	.L9
  96 000c 3128     		cmp	r0, #49
  97 000e 10D0     		beq	.L10
  98 0010 08BD     		pop	{r3, pc}
  99              	.L8:
 100 0012 7128     		cmp	r0, #113
 101 0014 04D0     		beq	.L11
 102 0016 7728     		cmp	r0, #119
 103 0018 05D0     		beq	.L12
 104 001a 6828     		cmp	r0, #104
 105 001c 11D1     		bne	.L5
 106 001e 05E0     		b	.L13
 107              	.L11:
  36:util.c        ****     {
  37:util.c        ****         case 'q' :
  38:util.c        ****         {
  39:util.c        ****             decreaseSpeed();
 108              		.loc 1 39 0
 109 0020 FFF7FEFF 		bl	decreaseSpeed
 110              	.LVL7:
  40:util.c        ****         }
  41:util.c        ****         break;
 111              		.loc 1 41 0
 112 0024 08BD     		pop	{r3, pc}
 113              	.LVL8:
 114              	.L12:
  42:util.c        ****         case 'w' :
  43:util.c        ****         {
  44:util.c        ****             increaseSpeed();
 115              		.loc 1 44 0
 116 0026 FFF7FEFF 		bl	increaseSpeed
 117              	.LVL9:
  45:util.c        ****         }
  46:util.c        ****         break;
 118              		.loc 1 46 0
 119 002a 08BD     		pop	{r3, pc}
 120              	.LVL10:
 121              	.L13:
  47:util.c        ****         case 'h' :
  48:util.c        ****         {
  49:util.c        ****             print_help();
 122              		.loc 1 49 0
ARM GAS  C:\Users\malle\AppData\Local\Temp\ccXH52jO.s 			page 4


 123 002c FFF7FEFF 		bl	print_help
 124              	.LVL11:
  50:util.c        ****         }
  51:util.c        ****         break;
 125              		.loc 1 51 0
 126 0030 08BD     		pop	{r3, pc}
 127              	.LVL12:
 128              	.L10:
  52:util.c        ****         case '1' :
  53:util.c        ****         {
  54:util.c        ****             driveForwards();
 129              		.loc 1 54 0
 130 0032 FFF7FEFF 		bl	driveForwards
 131              	.LVL13:
  55:util.c        ****         }
  56:util.c        ****         break;
 132              		.loc 1 56 0
 133 0036 08BD     		pop	{r3, pc}
 134              	.LVL14:
 135              	.L7:
  57:util.c        ****         case '2' :
  58:util.c        ****         {
  59:util.c        ****             driveBackwards();
 136              		.loc 1 59 0
 137 0038 FFF7FEFF 		bl	driveBackwards
 138              	.LVL15:
  60:util.c        ****         }
  61:util.c        ****         break;
 139              		.loc 1 61 0
 140 003c 08BD     		pop	{r3, pc}
 141              	.LVL16:
 142              	.L9:
  62:util.c        ****         case '0' :
  63:util.c        ****         {
  64:util.c        ****             stop();
 143              		.loc 1 64 0
 144 003e FFF7FEFF 		bl	stop
 145              	.LVL17:
 146              	.L5:
 147 0042 08BD     		pop	{r3, pc}
 148              		.cfi_endproc
 149              	.LFE64:
 150              		.size	handleByteReceived, .-handleByteReceived
 151              		.section	.text.init,"ax",%progbits
 152              		.align	2
 153              		.global	init
 154              		.thumb
 155              		.thumb_func
 156              		.type	init, %function
 157              	init:
 158              	.LFB65:
  65:util.c        ****             
  66:util.c        ****         }
  67:util.c        ****         break;
  68:util.c        ****         default :
  69:util.c        ****         {
  70:util.c        ****             // nothing
ARM GAS  C:\Users\malle\AppData\Local\Temp\ccXH52jO.s 			page 5


  71:util.c        ****         }
  72:util.c        ****         break;
  73:util.c        ****     }
  74:util.c        **** }
  75:util.c        **** 
  76:util.c        **** /*
  77:util.c        ****     Initialise motor. Starts UART and PWN and prints options.
  78:util.c        **** */
  79:util.c        **** void init()
  80:util.c        **** {
 159              		.loc 1 80 0
 160              		.cfi_startproc
 161              		@ args = 0, pretend = 0, frame = 0
 162              		@ frame_needed = 0, uses_anonymous_args = 0
 163 0000 08B5     		push	{r3, lr}
 164              		.cfi_def_cfa_offset 8
 165              		.cfi_offset 3, -8
 166              		.cfi_offset 14, -4
  81:util.c        ****     UART_1_Start();
 167              		.loc 1 81 0
 168 0002 FFF7FEFF 		bl	UART_1_Start
 169              	.LVL18:
  82:util.c        ****     PWM_1_Start();    
 170              		.loc 1 82 0
 171 0006 FFF7FEFF 		bl	PWM_1_Start
 172              	.LVL19:
  83:util.c        ****     UART_1_PutString("DC-Motor-PWM application started\r\n");
 173              		.loc 1 83 0
 174 000a 0348     		ldr	r0, .L17
 175 000c FFF7FEFF 		bl	UART_1_PutString
 176              	.LVL20:
  84:util.c        ****     print_help();
 177              		.loc 1 84 0
 178 0010 FFF7FEFF 		bl	print_help
 179              	.LVL21:
 180 0014 08BD     		pop	{r3, pc}
 181              	.L18:
 182 0016 00BF     		.align	2
 183              	.L17:
 184 0018 74000000 		.word	.LC6
 185              		.cfi_endproc
 186              	.LFE65:
 187              		.size	init, .-init
 188              		.section	.rodata.str1.4,"aMS",%progbits,1
 189              		.align	2
 190              	.LC0:
 191 0000 303A2053 		.ascii	"0: Stop\015\012\000"
 191      746F700D 
 191      0A00
 192 000a 0000     		.space	2
 193              	.LC1:
 194 000c 313A2044 		.ascii	"1: Drive forwards\015\012\000"
 194      72697665 
 194      20666F72 
 194      77617264 
 194      730D0A00 
 195              	.LC2:
ARM GAS  C:\Users\malle\AppData\Local\Temp\ccXH52jO.s 			page 6


 196 0020 323A2044 		.ascii	"2: Drive backwards\015\012\000"
 196      72697665 
 196      20626163 
 196      6B776172 
 196      64730D0A 
 197 0035 000000   		.space	3
 198              	.LC3:
 199 0038 713A2044 		.ascii	"q: Decrease speed\015\012\000"
 199      65637265 
 199      61736520 
 199      73706565 
 199      640D0A00 
 200              	.LC4:
 201 004c 773A2049 		.ascii	"w: Increase speed\015\012\000"
 201      6E637265 
 201      61736520 
 201      73706565 
 201      640D0A00 
 202              	.LC5:
 203 0060 683A2053 		.ascii	"h: Show options\015\012\000"
 203      686F7720 
 203      6F707469 
 203      6F6E730D 
 203      0A00
 204 0072 0000     		.space	2
 205              	.LC6:
 206 0074 44432D4D 		.ascii	"DC-Motor-PWM application started\015\012\000"
 206      6F746F72 
 206      2D50574D 
 206      20617070 
 206      6C696361 
 207              		.text
 208              	.Letext0:
 209              		.file 2 "c:\\program files (x86)\\cypress\\psoc creator\\4.4\\psoc creator\\import\\gnu\\arm\\5.4.
 210              		.file 3 "c:\\program files (x86)\\cypress\\psoc creator\\4.4\\psoc creator\\import\\gnu\\arm\\5.4.
 211              		.file 4 "Generated_Source\\PSoC5/UART_1.h"
 212              		.file 5 "controls.h"
 213              		.file 6 "Generated_Source\\PSoC5/PWM_1.h"
 214              		.file 7 "Generated_Source\\PSoC5/core_cm3.h"