ARM GAS  C:\Users\JNPou\AppData\Local\Temp\ccB5yPqB.s 			page 1


   1              		.syntax unified
   2              		.cpu cortex-m3
   3              		.fpu softvfp
   4              		.eabi_attribute 20, 1
   5              		.eabi_attribute 21, 1
   6              		.eabi_attribute 23, 3
   7              		.eabi_attribute 24, 1
   8              		.eabi_attribute 25, 1
   9              		.eabi_attribute 26, 1
  10              		.eabi_attribute 30, 1
  11              		.eabi_attribute 34, 1
  12              		.eabi_attribute 18, 4
  13              		.thumb
  14              		.syntax unified
  15              		.file	"main.c"
  16              		.text
  17              	.Ltext0:
  18              		.cfi_sections	.debug_frame
  19              		.section	.text.main,"ax",%progbits
  20              		.align	2
  21              		.global	main
  22              		.thumb
  23              		.thumb_func
  24              		.type	main, %function
  25              	main:
  26              	.LFB63:
  27              		.file 1 "main.c"
   1:main.c        **** /* ========================================
   2:main.c        ****  *
   3:main.c        ****  * Copyright YOUR COMPANY, THE YEAR
   4:main.c        ****  * All Rights Reserved
   5:main.c        ****  * UNPUBLISHED, LICENSED SOFTWARE.
   6:main.c        ****  *
   7:main.c        ****  * CONFIDENTIAL AND PROPRIETARY INFORMATION
   8:main.c        ****  * WHICH IS THE PROPERTY OF your company.
   9:main.c        ****  *
  10:main.c        ****  * ========================================
  11:main.c        **** */
  12:main.c        **** #include "project.h"
  13:main.c        **** 
  14:main.c        **** CY_ISR_PROTO(ISR_UART_rx_handler);
  15:main.c        **** void handleByteReceived(uint8_t byteReceived);
  16:main.c        **** void decreaseSpeed(void);
  17:main.c        **** void increaseSpeed(void);
  18:main.c        **** void driveForwards(void);
  19:main.c        **** void driveBackwards(void);
  20:main.c        **** void stop(void);
  21:main.c        **** 
  22:main.c        **** int main(void)
  23:main.c        **** {
  28              		.loc 1 23 0
  29              		.cfi_startproc
  30              		@ Volatile: function does not return.
  31              		@ args = 0, pretend = 0, frame = 0
  32              		@ frame_needed = 0, uses_anonymous_args = 0
  33 0000 08B5     		push	{r3, lr}
  34              		.cfi_def_cfa_offset 8
ARM GAS  C:\Users\JNPou\AppData\Local\Temp\ccB5yPqB.s 			page 2


  35              		.cfi_offset 3, -8
  36              		.cfi_offset 14, -4
  24:main.c        ****     CyGlobalIntEnable; /* Enable global interrupts. */
  37              		.loc 1 24 0
  38              		.syntax unified
  39              	@ 24 "main.c" 1
  40 0002 62B6     		CPSIE   i
  41              	@ 0 "" 2
  25:main.c        **** 
  26:main.c        ****     /* Place your initialization/startup code here (e.g. MyInst_Start()) */
  27:main.c        ****     isr_uart_rx_StartEx(ISR_UART_rx_handler);
  42              		.loc 1 27 0
  43              		.thumb
  44              		.syntax unified
  45 0004 0C48     		ldr	r0, .L4
  46 0006 FFF7FEFF 		bl	isr_uart_rx_StartEx
  47              	.LVL0:
  28:main.c        ****     UART_1_Start();
  48              		.loc 1 28 0
  49 000a FFF7FEFF 		bl	UART_1_Start
  50              	.LVL1:
  29:main.c        ****     PWM_1_Start();
  51              		.loc 1 29 0
  52 000e FFF7FEFF 		bl	PWM_1_Start
  53              	.LVL2:
  30:main.c        ****     
  31:main.c        ****     UART_1_PutString("DC-Motor-PWM application started\r\n");
  54              		.loc 1 31 0
  55 0012 0A48     		ldr	r0, .L4+4
  56 0014 FFF7FEFF 		bl	UART_1_PutString
  57              	.LVL3:
  32:main.c        ****     UART_1_PutString("0: Stop\r\n");
  58              		.loc 1 32 0
  59 0018 0948     		ldr	r0, .L4+8
  60 001a FFF7FEFF 		bl	UART_1_PutString
  61              	.LVL4:
  33:main.c        ****     UART_1_PutString("1: Drive forwards\r\n");
  62              		.loc 1 33 0
  63 001e 0948     		ldr	r0, .L4+12
  64 0020 FFF7FEFF 		bl	UART_1_PutString
  65              	.LVL5:
  34:main.c        ****     UART_1_PutString("2: Drive backwards\r\n");
  66              		.loc 1 34 0
  67 0024 0848     		ldr	r0, .L4+16
  68 0026 FFF7FEFF 		bl	UART_1_PutString
  69              	.LVL6:
  35:main.c        ****     UART_1_PutString("q: Decrease speed\r\n");
  70              		.loc 1 35 0
  71 002a 0848     		ldr	r0, .L4+20
  72 002c FFF7FEFF 		bl	UART_1_PutString
  73              	.LVL7:
  36:main.c        ****     UART_1_PutString("w: Increase speed\r\n");
  74              		.loc 1 36 0
  75 0030 0748     		ldr	r0, .L4+24
  76 0032 FFF7FEFF 		bl	UART_1_PutString
  77              	.LVL8:
  78              	.L2:
ARM GAS  C:\Users\JNPou\AppData\Local\Temp\ccB5yPqB.s 			page 3


  79 0036 FEE7     		b	.L2
  80              	.L5:
  81              		.align	2
  82              	.L4:
  83 0038 00000000 		.word	ISR_UART_rx_handler
  84 003c 00000000 		.word	.LC0
  85 0040 24000000 		.word	.LC1
  86 0044 30000000 		.word	.LC2
  87 0048 44000000 		.word	.LC3
  88 004c 5C000000 		.word	.LC4
  89 0050 70000000 		.word	.LC5
  90              		.cfi_endproc
  91              	.LFE63:
  92              		.size	main, .-main
  93              		.section	.text.decreaseSpeed,"ax",%progbits
  94              		.align	2
  95              		.global	decreaseSpeed
  96              		.thumb
  97              		.thumb_func
  98              		.type	decreaseSpeed, %function
  99              	decreaseSpeed:
 100              	.LFB66:
  37:main.c        **** 
  38:main.c        ****     for(;;)
  39:main.c        ****     {
  40:main.c        ****         /* Place your application code here. */
  41:main.c        ****     }
  42:main.c        **** }
  43:main.c        **** 
  44:main.c        **** CY_ISR(ISR_UART_rx_handler)
  45:main.c        **** {
  46:main.c        ****     uint8_t bytesToRead = UART_1_GetRxBufferSize();
  47:main.c        ****     while (bytesToRead > 0)
  48:main.c        ****     {
  49:main.c        ****         uint8_t byteReceived = UART_1_ReadRxData();
  50:main.c        ****         UART_1_WriteTxData(byteReceived); // echo back
  51:main.c        ****         
  52:main.c        ****         handleByteReceived(byteReceived);
  53:main.c        ****         
  54:main.c        ****         bytesToRead--;
  55:main.c        ****     }
  56:main.c        **** }
  57:main.c        **** 
  58:main.c        **** void handleByteReceived(uint8_t byteReceived)
  59:main.c        **** {
  60:main.c        ****     switch(byteReceived)
  61:main.c        ****     {
  62:main.c        ****         case 'q' :
  63:main.c        ****         {
  64:main.c        ****             decreaseSpeed();
  65:main.c        ****         }
  66:main.c        ****         break;
  67:main.c        ****         case 'w' :
  68:main.c        ****         {
  69:main.c        ****             increaseSpeed();
  70:main.c        ****         }
  71:main.c        ****         break;
ARM GAS  C:\Users\JNPou\AppData\Local\Temp\ccB5yPqB.s 			page 4


  72:main.c        ****         case '1' :
  73:main.c        ****         {
  74:main.c        ****             driveForwards();
  75:main.c        ****         }
  76:main.c        ****         break;
  77:main.c        ****         case '2' :
  78:main.c        ****         {
  79:main.c        ****             driveBackwards();
  80:main.c        ****         }
  81:main.c        ****         break;
  82:main.c        ****         case '0' :
  83:main.c        ****         {
  84:main.c        ****             stop();
  85:main.c        ****             
  86:main.c        ****         }
  87:main.c        ****         break;
  88:main.c        ****         default :
  89:main.c        ****         {
  90:main.c        ****             // nothing
  91:main.c        ****         }
  92:main.c        ****         break;
  93:main.c        ****     }
  94:main.c        **** }
  95:main.c        **** 
  96:main.c        **** void decreaseSpeed()
  97:main.c        **** {
 101              		.loc 1 97 0
 102              		.cfi_startproc
 103              		@ args = 0, pretend = 0, frame = 0
 104              		@ frame_needed = 0, uses_anonymous_args = 0
 105 0000 08B5     		push	{r3, lr}
 106              		.cfi_def_cfa_offset 8
 107              		.cfi_offset 3, -8
 108              		.cfi_offset 14, -4
  98:main.c        ****     UART_1_PutString("Decreasing speed\r\n");
 109              		.loc 1 98 0
 110 0002 0848     		ldr	r0, .L10
 111 0004 FFF7FEFF 		bl	UART_1_PutString
 112              	.LVL9:
  99:main.c        ****     uint8 compareVal = PWM_1_ReadCompare();
 113              		.loc 1 99 0
 114 0008 FFF7FEFF 		bl	PWM_1_ReadCompare
 115              	.LVL10:
 100:main.c        ****     if (compareVal > 10)
 116              		.loc 1 100 0
 117 000c 0A28     		cmp	r0, #10
 118 000e 04D9     		bls	.L7
 101:main.c        ****     {
 102:main.c        ****          PWM_1_WriteCompare(compareVal - 10);
 119              		.loc 1 102 0
 120 0010 0A38     		subs	r0, r0, #10
 121              	.LVL11:
 122 0012 C0B2     		uxtb	r0, r0
 123 0014 FFF7FEFF 		bl	PWM_1_WriteCompare
 124              	.LVL12:
 125 0018 08BD     		pop	{r3, pc}
 126              	.LVL13:
ARM GAS  C:\Users\JNPou\AppData\Local\Temp\ccB5yPqB.s 			page 5


 127              	.L7:
 103:main.c        ****     }
 104:main.c        ****     else
 105:main.c        ****     {
 106:main.c        ****         PWM_1_WriteCompare(0);
 128              		.loc 1 106 0
 129 001a 0020     		movs	r0, #0
 130              	.LVL14:
 131 001c FFF7FEFF 		bl	PWM_1_WriteCompare
 132              	.LVL15:
 133 0020 08BD     		pop	{r3, pc}
 134              	.L11:
 135 0022 00BF     		.align	2
 136              	.L10:
 137 0024 84000000 		.word	.LC6
 138              		.cfi_endproc
 139              	.LFE66:
 140              		.size	decreaseSpeed, .-decreaseSpeed
 141              		.section	.text.increaseSpeed,"ax",%progbits
 142              		.align	2
 143              		.global	increaseSpeed
 144              		.thumb
 145              		.thumb_func
 146              		.type	increaseSpeed, %function
 147              	increaseSpeed:
 148              	.LFB67:
 107:main.c        ****     }
 108:main.c        **** }
 109:main.c        **** 
 110:main.c        **** void increaseSpeed()
 111:main.c        **** {
 149              		.loc 1 111 0
 150              		.cfi_startproc
 151              		@ args = 0, pretend = 0, frame = 0
 152              		@ frame_needed = 0, uses_anonymous_args = 0
 153 0000 08B5     		push	{r3, lr}
 154              		.cfi_def_cfa_offset 8
 155              		.cfi_offset 3, -8
 156              		.cfi_offset 14, -4
 112:main.c        ****     UART_1_PutString("Increasing speed\r\n");
 157              		.loc 1 112 0
 158 0002 0848     		ldr	r0, .L16
 159 0004 FFF7FEFF 		bl	UART_1_PutString
 160              	.LVL16:
 113:main.c        ****     uint8 compareVal = PWM_1_ReadCompare();
 161              		.loc 1 113 0
 162 0008 FFF7FEFF 		bl	PWM_1_ReadCompare
 163              	.LVL17:
 114:main.c        ****     if (compareVal < 90)
 164              		.loc 1 114 0
 165 000c 5928     		cmp	r0, #89
 166 000e 04D8     		bhi	.L13
 115:main.c        ****     {
 116:main.c        ****          PWM_1_WriteCompare(compareVal + 10);
 167              		.loc 1 116 0
 168 0010 0A30     		adds	r0, r0, #10
 169              	.LVL18:
ARM GAS  C:\Users\JNPou\AppData\Local\Temp\ccB5yPqB.s 			page 6


 170 0012 C0B2     		uxtb	r0, r0
 171 0014 FFF7FEFF 		bl	PWM_1_WriteCompare
 172              	.LVL19:
 173 0018 08BD     		pop	{r3, pc}
 174              	.LVL20:
 175              	.L13:
 117:main.c        ****     }
 118:main.c        ****     else
 119:main.c        ****     {
 120:main.c        ****         PWM_1_WriteCompare(100);
 176              		.loc 1 120 0
 177 001a 6420     		movs	r0, #100
 178              	.LVL21:
 179 001c FFF7FEFF 		bl	PWM_1_WriteCompare
 180              	.LVL22:
 181 0020 08BD     		pop	{r3, pc}
 182              	.L17:
 183 0022 00BF     		.align	2
 184              	.L16:
 185 0024 98000000 		.word	.LC7
 186              		.cfi_endproc
 187              	.LFE67:
 188              		.size	increaseSpeed, .-increaseSpeed
 189              		.section	.text.driveForwards,"ax",%progbits
 190              		.align	2
 191              		.global	driveForwards
 192              		.thumb
 193              		.thumb_func
 194              		.type	driveForwards, %function
 195              	driveForwards:
 196              	.LFB68:
 121:main.c        ****     }
 122:main.c        **** }
 123:main.c        **** 
 124:main.c        **** void driveForwards()
 125:main.c        **** {
 197              		.loc 1 125 0
 198              		.cfi_startproc
 199              		@ args = 0, pretend = 0, frame = 0
 200              		@ frame_needed = 0, uses_anonymous_args = 0
 201 0000 08B5     		push	{r3, lr}
 202              		.cfi_def_cfa_offset 8
 203              		.cfi_offset 3, -8
 204              		.cfi_offset 14, -4
 126:main.c        ****     UART_1_PutString("Set direction: forwards\r\n");
 205              		.loc 1 126 0
 206 0002 0548     		ldr	r0, .L20
 207 0004 FFF7FEFF 		bl	UART_1_PutString
 208              	.LVL23:
 127:main.c        ****     IN2_Write(0);
 209              		.loc 1 127 0
 210 0008 0020     		movs	r0, #0
 211 000a FFF7FEFF 		bl	IN2_Write
 212              	.LVL24:
 128:main.c        ****     IN1_Write(1);
 213              		.loc 1 128 0
 214 000e 0120     		movs	r0, #1
ARM GAS  C:\Users\JNPou\AppData\Local\Temp\ccB5yPqB.s 			page 7


 215 0010 FFF7FEFF 		bl	IN1_Write
 216              	.LVL25:
 217 0014 08BD     		pop	{r3, pc}
 218              	.L21:
 219 0016 00BF     		.align	2
 220              	.L20:
 221 0018 AC000000 		.word	.LC8
 222              		.cfi_endproc
 223              	.LFE68:
 224              		.size	driveForwards, .-driveForwards
 225              		.section	.text.driveBackwards,"ax",%progbits
 226              		.align	2
 227              		.global	driveBackwards
 228              		.thumb
 229              		.thumb_func
 230              		.type	driveBackwards, %function
 231              	driveBackwards:
 232              	.LFB69:
 129:main.c        **** }
 130:main.c        **** 
 131:main.c        **** void driveBackwards()
 132:main.c        **** {
 233              		.loc 1 132 0
 234              		.cfi_startproc
 235              		@ args = 0, pretend = 0, frame = 0
 236              		@ frame_needed = 0, uses_anonymous_args = 0
 237 0000 08B5     		push	{r3, lr}
 238              		.cfi_def_cfa_offset 8
 239              		.cfi_offset 3, -8
 240              		.cfi_offset 14, -4
 133:main.c        ****     UART_1_PutString("Set direction: backwards\r\n");
 241              		.loc 1 133 0
 242 0002 0548     		ldr	r0, .L24
 243 0004 FFF7FEFF 		bl	UART_1_PutString
 244              	.LVL26:
 134:main.c        ****     IN1_Write(0);
 245              		.loc 1 134 0
 246 0008 0020     		movs	r0, #0
 247 000a FFF7FEFF 		bl	IN1_Write
 248              	.LVL27:
 135:main.c        ****     IN2_Write(1);
 249              		.loc 1 135 0
 250 000e 0120     		movs	r0, #1
 251 0010 FFF7FEFF 		bl	IN2_Write
 252              	.LVL28:
 253 0014 08BD     		pop	{r3, pc}
 254              	.L25:
 255 0016 00BF     		.align	2
 256              	.L24:
 257 0018 C8000000 		.word	.LC9
 258              		.cfi_endproc
 259              	.LFE69:
 260              		.size	driveBackwards, .-driveBackwards
 261              		.section	.text.stop,"ax",%progbits
 262              		.align	2
 263              		.global	stop
 264              		.thumb
ARM GAS  C:\Users\JNPou\AppData\Local\Temp\ccB5yPqB.s 			page 8


 265              		.thumb_func
 266              		.type	stop, %function
 267              	stop:
 268              	.LFB70:
 136:main.c        **** }
 137:main.c        **** 
 138:main.c        **** void stop()
 139:main.c        **** {
 269              		.loc 1 139 0
 270              		.cfi_startproc
 271              		@ args = 0, pretend = 0, frame = 0
 272              		@ frame_needed = 0, uses_anonymous_args = 0
 273 0000 08B5     		push	{r3, lr}
 274              		.cfi_def_cfa_offset 8
 275              		.cfi_offset 3, -8
 276              		.cfi_offset 14, -4
 140:main.c        ****     PWM_1_WriteCompare(0);
 277              		.loc 1 140 0
 278 0002 0020     		movs	r0, #0
 279 0004 FFF7FEFF 		bl	PWM_1_WriteCompare
 280              	.LVL29:
 141:main.c        ****     UART_1_PutString("Stop\r\n");
 281              		.loc 1 141 0
 282 0008 0148     		ldr	r0, .L28
 283 000a FFF7FEFF 		bl	UART_1_PutString
 284              	.LVL30:
 285 000e 08BD     		pop	{r3, pc}
 286              	.L29:
 287              		.align	2
 288              	.L28:
 289 0010 E4000000 		.word	.LC10
 290              		.cfi_endproc
 291              	.LFE70:
 292              		.size	stop, .-stop
 293              		.section	.text.handleByteReceived,"ax",%progbits
 294              		.align	2
 295              		.global	handleByteReceived
 296              		.thumb
 297              		.thumb_func
 298              		.type	handleByteReceived, %function
 299              	handleByteReceived:
 300              	.LFB65:
  59:main.c        ****     switch(byteReceived)
 301              		.loc 1 59 0
 302              		.cfi_startproc
 303              		@ args = 0, pretend = 0, frame = 0
 304              		@ frame_needed = 0, uses_anonymous_args = 0
 305              	.LVL31:
 306 0000 08B5     		push	{r3, lr}
 307              		.cfi_def_cfa_offset 8
 308              		.cfi_offset 3, -8
 309              		.cfi_offset 14, -4
  60:main.c        ****     {
 310              		.loc 1 60 0
 311 0002 3228     		cmp	r0, #50
 312 0004 13D0     		beq	.L32
 313 0006 04D8     		bhi	.L33
ARM GAS  C:\Users\JNPou\AppData\Local\Temp\ccB5yPqB.s 			page 9


 314 0008 3028     		cmp	r0, #48
 315 000a 13D0     		beq	.L34
 316 000c 3128     		cmp	r0, #49
 317 000e 0BD0     		beq	.L35
 318 0010 08BD     		pop	{r3, pc}
 319              	.L33:
 320 0012 7128     		cmp	r0, #113
 321 0014 02D0     		beq	.L36
 322 0016 7728     		cmp	r0, #119
 323 0018 03D0     		beq	.L37
 324 001a 08BD     		pop	{r3, pc}
 325              	.L36:
  64:main.c        ****         }
 326              		.loc 1 64 0
 327 001c FFF7FEFF 		bl	decreaseSpeed
 328              	.LVL32:
  66:main.c        ****         case 'w' :
 329              		.loc 1 66 0
 330 0020 08BD     		pop	{r3, pc}
 331              	.LVL33:
 332              	.L37:
  69:main.c        ****         }
 333              		.loc 1 69 0
 334 0022 FFF7FEFF 		bl	increaseSpeed
 335              	.LVL34:
  71:main.c        ****         case '1' :
 336              		.loc 1 71 0
 337 0026 08BD     		pop	{r3, pc}
 338              	.LVL35:
 339              	.L35:
  74:main.c        ****         }
 340              		.loc 1 74 0
 341 0028 FFF7FEFF 		bl	driveForwards
 342              	.LVL36:
  76:main.c        ****         case '2' :
 343              		.loc 1 76 0
 344 002c 08BD     		pop	{r3, pc}
 345              	.LVL37:
 346              	.L32:
  79:main.c        ****         }
 347              		.loc 1 79 0
 348 002e FFF7FEFF 		bl	driveBackwards
 349              	.LVL38:
  81:main.c        ****         case '0' :
 350              		.loc 1 81 0
 351 0032 08BD     		pop	{r3, pc}
 352              	.LVL39:
 353              	.L34:
  84:main.c        ****             
 354              		.loc 1 84 0
 355 0034 FFF7FEFF 		bl	stop
 356              	.LVL40:
 357 0038 08BD     		pop	{r3, pc}
 358              		.cfi_endproc
 359              	.LFE65:
 360              		.size	handleByteReceived, .-handleByteReceived
 361 003a 00BF     		.section	.text.ISR_UART_rx_handler,"ax",%progbits
ARM GAS  C:\Users\JNPou\AppData\Local\Temp\ccB5yPqB.s 			page 10


 362              		.align	2
 363              		.global	ISR_UART_rx_handler
 364              		.thumb
 365              		.thumb_func
 366              		.type	ISR_UART_rx_handler, %function
 367              	ISR_UART_rx_handler:
 368              	.LFB64:
  45:main.c        ****     uint8_t bytesToRead = UART_1_GetRxBufferSize();
 369              		.loc 1 45 0
 370              		.cfi_startproc
 371              		@ args = 0, pretend = 0, frame = 0
 372              		@ frame_needed = 0, uses_anonymous_args = 0
 373 0000 38B5     		push	{r3, r4, r5, lr}
 374              		.cfi_def_cfa_offset 16
 375              		.cfi_offset 3, -16
 376              		.cfi_offset 4, -12
 377              		.cfi_offset 5, -8
 378              		.cfi_offset 14, -4
  46:main.c        ****     while (bytesToRead > 0)
 379              		.loc 1 46 0
 380 0002 FFF7FEFF 		bl	UART_1_GetRxBufferSize
 381              	.LVL41:
 382 0006 0446     		mov	r4, r0
 383              	.LVL42:
  47:main.c        ****     {
 384              		.loc 1 47 0
 385 0008 09E0     		b	.L40
 386              	.L41:
 387              	.LBB2:
  49:main.c        ****         UART_1_WriteTxData(byteReceived); // echo back
 388              		.loc 1 49 0
 389 000a FFF7FEFF 		bl	UART_1_ReadRxData
 390              	.LVL43:
 391 000e 0546     		mov	r5, r0
 392              	.LVL44:
  50:main.c        ****         
 393              		.loc 1 50 0
 394 0010 FFF7FEFF 		bl	UART_1_WriteTxData
 395              	.LVL45:
  52:main.c        ****         
 396              		.loc 1 52 0
 397 0014 2846     		mov	r0, r5
 398 0016 FFF7FEFF 		bl	handleByteReceived
 399              	.LVL46:
  54:main.c        ****     }
 400              		.loc 1 54 0
 401 001a 013C     		subs	r4, r4, #1
 402              	.LVL47:
 403 001c E4B2     		uxtb	r4, r4
 404              	.LVL48:
 405              	.L40:
 406              	.LBE2:
  47:main.c        ****     {
 407              		.loc 1 47 0
 408 001e 002C     		cmp	r4, #0
 409 0020 F3D1     		bne	.L41
  56:main.c        **** 
ARM GAS  C:\Users\JNPou\AppData\Local\Temp\ccB5yPqB.s 			page 11


 410              		.loc 1 56 0
 411 0022 38BD     		pop	{r3, r4, r5, pc}
 412              		.cfi_endproc
 413              	.LFE64:
 414              		.size	ISR_UART_rx_handler, .-ISR_UART_rx_handler
 415              		.section	.rodata.str1.4,"aMS",%progbits,1
 416              		.align	2
 417              	.LC0:
 418 0000 44432D4D 		.ascii	"DC-Motor-PWM application started\015\012\000"
 418      6F746F72 
 418      2D50574D 
 418      20617070 
 418      6C696361 
 419 0023 00       		.space	1
 420              	.LC1:
 421 0024 303A2053 		.ascii	"0: Stop\015\012\000"
 421      746F700D 
 421      0A00
 422 002e 0000     		.space	2
 423              	.LC2:
 424 0030 313A2044 		.ascii	"1: Drive forwards\015\012\000"
 424      72697665 
 424      20666F72 
 424      77617264 
 424      730D0A00 
 425              	.LC3:
 426 0044 323A2044 		.ascii	"2: Drive backwards\015\012\000"
 426      72697665 
 426      20626163 
 426      6B776172 
 426      64730D0A 
 427 0059 000000   		.space	3
 428              	.LC4:
 429 005c 713A2044 		.ascii	"q: Decrease speed\015\012\000"
 429      65637265 
 429      61736520 
 429      73706565 
 429      640D0A00 
 430              	.LC5:
 431 0070 773A2049 		.ascii	"w: Increase speed\015\012\000"
 431      6E637265 
 431      61736520 
 431      73706565 
 431      640D0A00 
 432              	.LC6:
 433 0084 44656372 		.ascii	"Decreasing speed\015\012\000"
 433      65617369 
 433      6E672073 
 433      70656564 
 433      0D0A00
 434 0097 00       		.space	1
 435              	.LC7:
 436 0098 496E6372 		.ascii	"Increasing speed\015\012\000"
 436      65617369 
 436      6E672073 
 436      70656564 
 436      0D0A00
ARM GAS  C:\Users\JNPou\AppData\Local\Temp\ccB5yPqB.s 			page 12


 437 00ab 00       		.space	1
 438              	.LC8:
 439 00ac 53657420 		.ascii	"Set direction: forwards\015\012\000"
 439      64697265 
 439      6374696F 
 439      6E3A2066 
 439      6F727761 
 440 00c6 0000     		.space	2
 441              	.LC9:
 442 00c8 53657420 		.ascii	"Set direction: backwards\015\012\000"
 442      64697265 
 442      6374696F 
 442      6E3A2062 
 442      61636B77 
 443 00e3 00       		.space	1
 444              	.LC10:
 445 00e4 53746F70 		.ascii	"Stop\015\012\000"
 445      0D0A00
 446              		.text
 447              	.Letext0:
 448              		.file 2 "c:\\program files (x86)\\cypress\\psoc creator\\4.4\\psoc creator\\import\\gnu\\arm\\5.4.
 449              		.file 3 "c:\\program files (x86)\\cypress\\psoc creator\\4.4\\psoc creator\\import\\gnu\\arm\\5.4.
 450              		.file 4 "Generated_Source\\PSoC5/cytypes.h"
 451              		.file 5 "Generated_Source\\PSoC5/isr_uart_rx.h"
 452              		.file 6 "Generated_Source\\PSoC5/UART_1.h"
 453              		.file 7 "Generated_Source\\PSoC5/PWM_1.h"
 454              		.file 8 "Generated_Source\\PSoC5/IN2.h"
 455              		.file 9 "Generated_Source\\PSoC5/IN1.h"
 456              		.file 10 "Generated_Source\\PSoC5/core_cm3.h"